target datalayout = "e-m:e-p270:32:32-p271:32:32-p272:64:64-i64:64-i128:128-f80:128-n8:16:32:64-S128"
target triple = "x86_64-pc-linux-gnu"

%struct.H5CX_node_t = type { %struct.H5CX_t, ptr }
%struct.H5CX_t = type { i64, ptr, i64, ptr, i64, ptr, i64, ptr, i64, ptr, i64, ptr, i64, i32, i64, i8, ptr, i8, ptr, i8, i32, i8, [3 x double], i8, i64, i8, i32, i8, %struct.H5Z_cb_t, i8, ptr, i8, %struct.H5T_vlen_alloc_info_t, i8, %struct.H5T_conv_cb_t, i8, i32, i8, i8, i8, i32, i8, i8, i32, i8, i8, i32, i8, i32, i8, i64, i8, i8, i8, i8, i8, ptr, i8, ptr, i8, i32, i8, i32, i8, %struct.H5VL_connector_prop_t, i8, ptr, i8 }
%struct.H5Z_cb_t = type { ptr, ptr }
%struct.H5T_vlen_alloc_info_t = type { ptr, ptr, ptr, ptr }
%struct.H5T_conv_cb_t = type { ptr, ptr }
%struct.H5VL_connector_prop_t = type { ptr, ptr }

@H5_libinit_g = external global i8, align 1
@H5_libterm_g = external global i8, align 1
@.str = private unnamed_addr constant [98 x i8] c"generated/home/dtcxzyw/WorkSpace/Projects/compilers/llvm-opt-benchmark/bench/hdf5/hdf5/src/H5ES.c\00", align 1
@H5E_FUNC_g = external global i64, align 8
@H5E_CANTINIT_g = external global i64, align 8
@.str.1 = private unnamed_addr constant [30 x i8] c"library initialization failed\00", align 1
@H5ES_init_g = external global i8, align 1
@.str.2 = private unnamed_addr constant [32 x i8] c"interface initialization failed\00", align 1
@H5E_CANTSET_g = external global i64, align 8
@.str.3 = private unnamed_addr constant [22 x i8] c"can't set API context\00", align 1
@H5E_EVENTSET_g = external global i64, align 8
@H5E_ARGS_g = external global i64, align 8
@H5E_BADTYPE_g = external global i64, align 8
@.str.6 = private unnamed_addr constant [29 x i8] c"invalid event set identifier\00", align 1
@H5E_BADVALUE_g = external global i64, align 8
@__func__.H5ESwait = private unnamed_addr constant [9 x i8] c"H5ESwait\00", align 1
@.str.12 = private unnamed_addr constant [29 x i8] c"NULL num_in_progress pointer\00", align 1
@.str.13 = private unnamed_addr constant [23 x i8] c"NULL op_failed pointer\00", align 1
@H5E_CANTWAIT_g = external global i64, align 8
@.str.14 = private unnamed_addr constant [25 x i8] c"can't wait on operations\00", align 1

; Function Attrs: nounwind uwtable
define i32 @H5ESwait(i64 noundef %0, i64 noundef %1, ptr noundef %2, ptr noundef %3) #0 {
  %5 = alloca i32, align 4
  %6 = alloca i64, align 8
  %7 = alloca i64, align 8
  %8 = alloca ptr, align 8
  %9 = alloca ptr, align 8
  %10 = alloca i32, align 4
  %11 = alloca %struct.H5CX_node_t, align 8
  %12 = alloca i8, align 1
  %13 = alloca i8, align 1
  %14 = alloca ptr, align 8
  %15 = alloca i32, align 4
  store i64 %0, ptr %6, align 8, !tbaa !3
  store i64 %1, ptr %7, align 8, !tbaa !3
  store ptr %2, ptr %8, align 8, !tbaa !19
  store ptr %3, ptr %9, align 8, !tbaa !25
  call void @llvm.lifetime.start.p0(i64 4, ptr %10) #5
  store i32 0, ptr %10, align 4, !tbaa !17
  call void @llvm.lifetime.start.p0(i64 480, ptr %11) #5
  call void @llvm.memset.p0.i64(ptr align 8 %11, i8 0, i64 480, i1 false)
  call void @llvm.lifetime.start.p0(i64 1, ptr %12) #5
  store i8 0, ptr %12, align 1, !tbaa !7
  call void @llvm.lifetime.start.p0(i64 1, ptr %13) #5
  store i8 0, ptr %13, align 1, !tbaa !7
  br label %16

16:                                               ; preds = %4
  %17 = load i8, ptr @H5_libinit_g, align 1, !tbaa !7, !range !9, !noundef !10
  %18 = trunc i8 %17 to i1
  br i1 %18, label %23, label %19

19:                                               ; preds = %16
  %20 = load i8, ptr @H5_libterm_g, align 1, !tbaa !7, !range !9, !noundef !10
  %21 = trunc i8 %20 to i1
  %22 = xor i1 %21, true
  br label %23

23:                                               ; preds = %19, %16
  %24 = phi i1 [ false, %16 ], [ %22, %19 ]
  %25 = xor i1 %24, true
  %26 = xor i1 %25, true
  %27 = zext i1 %26 to i32
  %28 = sext i32 %27 to i64
  %29 = call i64 @llvm.expect.i64(i64 %28, i64 0)
  %30 = icmp ne i64 %29, 0
  br i1 %30, label %31, label %60

31:                                               ; preds = %23
  %32 = call i32 @H5_init_library()
  %33 = icmp slt i32 %32, 0
  %34 = xor i1 %33, true
  %35 = xor i1 %34, true
  %36 = zext i1 %35 to i32
  %37 = sext i32 %36 to i64
  %38 = call i64 @llvm.expect.i64(i64 %37, i64 0)
  %39 = icmp ne i64 %38, 0
  br i1 %39, label %40, label %59

40:                                               ; preds = %31
  br label %41

41:                                               ; preds = %40
  br label %42

42:                                               ; preds = %41
  br label %43

43:                                               ; preds = %42
  %44 = load i64, ptr @H5E_FUNC_g, align 8, !tbaa !3
  %45 = load i64, ptr @H5E_CANTINIT_g, align 8, !tbaa !3
  %46 = call i32 (ptr, ptr, i32, i64, i64, ptr, ...) @H5E_printf_stack(ptr noundef @.str, ptr noundef @__func__.H5ESwait, i32 noundef 292, i64 noundef %44, i64 noundef %45, ptr noundef @.str.1)
  br label %47

47:                                               ; preds = %43
  br label %48

48:                                               ; preds = %47
  store i8 1, ptr %13, align 1, !tbaa !7
  %49 = load i8, ptr %13, align 1, !tbaa !7, !range !9, !noundef !10
  %50 = trunc i8 %49 to i1
  %51 = zext i1 %50 to i8
  store i8 %51, ptr %13, align 1, !tbaa !7
  br label %52

52:                                               ; preds = %48
  br label %53

53:                                               ; preds = %52
  br label %54

54:                                               ; preds = %53
  store i32 -1, ptr %10, align 4, !tbaa !17
  br label %234

55:                                               ; No predecessors!
  br label %56

56:                                               ; preds = %55
  br label %57

57:                                               ; preds = %56
  br label %58

58:                                               ; preds = %57
  br label %59

59:                                               ; preds = %58, %31
  br label %60

60:                                               ; preds = %59, %23
  %61 = load i8, ptr @H5ES_init_g, align 1, !tbaa !7, !range !9, !noundef !10
  %62 = trunc i8 %61 to i1
  br i1 %62, label %67, label %63

63:                                               ; preds = %60
  %64 = load i8, ptr @H5_libterm_g, align 1, !tbaa !7, !range !9, !noundef !10
  %65 = trunc i8 %64 to i1
  %66 = xor i1 %65, true
  br label %67

67:                                               ; preds = %63, %60
  %68 = phi i1 [ false, %60 ], [ %66, %63 ]
  %69 = xor i1 %68, true
  %70 = xor i1 %69, true
  %71 = zext i1 %70 to i32
  %72 = sext i32 %71 to i64
  %73 = call i64 @llvm.expect.i64(i64 %72, i64 0)
  %74 = icmp ne i64 %73, 0
  br i1 %74, label %75, label %98

75:                                               ; preds = %67
  store i8 1, ptr @H5ES_init_g, align 1, !tbaa !7
  %76 = call i32 @H5ES__init_package()
  %77 = icmp slt i32 %76, 0
  br i1 %77, label %78, label %97

78:                                               ; preds = %75
  store i8 0, ptr @H5ES_init_g, align 1, !tbaa !7
  br label %79

79:                                               ; preds = %78
  br label %80

80:                                               ; preds = %79
  br label %81

81:                                               ; preds = %80
  %82 = load i64, ptr @H5E_FUNC_g, align 8, !tbaa !3
  %83 = load i64, ptr @H5E_CANTINIT_g, align 8, !tbaa !3
  %84 = call i32 (ptr, ptr, i32, i64, i64, ptr, ...) @H5E_printf_stack(ptr noundef @.str, ptr noundef @__func__.H5ESwait, i32 noundef 292, i64 noundef %82, i64 noundef %83, ptr noundef @.str.2)
  br label %85

85:                                               ; preds = %81
  br label %86

86:                                               ; preds = %85
  store i8 1, ptr %13, align 1, !tbaa !7
  %87 = load i8, ptr %13, align 1, !tbaa !7, !range !9, !noundef !10
  %88 = trunc i8 %87 to i1
  %89 = zext i1 %88 to i8
  store i8 %89, ptr %13, align 1, !tbaa !7
  br label %90

90:                                               ; preds = %86
  br label %91

91:                                               ; preds = %90
  br label %92

92:                                               ; preds = %91
  store i32 -1, ptr %10, align 4, !tbaa !17
  br label %234

93:                                               ; No predecessors!
  br label %94

94:                                               ; preds = %93
  br label %95

95:                                               ; preds = %94
  br label %96

96:                                               ; preds = %95
  br label %97

97:                                               ; preds = %96, %75
  br label %98

98:                                               ; preds = %97, %67
  br label %99

99:                                               ; preds = %98
  br label %100

100:                                              ; preds = %99
  br label %101

101:                                              ; preds = %100
  %102 = call i32 @H5CX_push(ptr noundef %11)
  %103 = icmp slt i32 %102, 0
  %104 = xor i1 %103, true
  %105 = xor i1 %104, true
  %106 = zext i1 %105 to i32
  %107 = sext i32 %106 to i64
  %108 = call i64 @llvm.expect.i64(i64 %107, i64 0)
  %109 = icmp ne i64 %108, 0
  br i1 %109, label %110, label %129

110:                                              ; preds = %101
  br label %111

111:                                              ; preds = %110
  br label %112

112:                                              ; preds = %111
  br label %113

113:                                              ; preds = %112
  %114 = load i64, ptr @H5E_FUNC_g, align 8, !tbaa !3
  %115 = load i64, ptr @H5E_CANTSET_g, align 8, !tbaa !3
  %116 = call i32 (ptr, ptr, i32, i64, i64, ptr, ...) @H5E_printf_stack(ptr noundef @.str, ptr noundef @__func__.H5ESwait, i32 noundef 292, i64 noundef %114, i64 noundef %115, ptr noundef @.str.3)
  br label %117

117:                                              ; preds = %113
  br label %118

118:                                              ; preds = %117
  store i8 1, ptr %13, align 1, !tbaa !7
  %119 = load i8, ptr %13, align 1, !tbaa !7, !range !9, !noundef !10
  %120 = trunc i8 %119 to i1
  %121 = zext i1 %120 to i8
  store i8 %121, ptr %13, align 1, !tbaa !7
  br label %122

122:                                              ; preds = %118
  br label %123

123:                                              ; preds = %122
  br label %124

124:                                              ; preds = %123
  store i32 -1, ptr %10, align 4, !tbaa !17
  br label %234

125:                                              ; No predecessors!
  br label %126

126:                                              ; preds = %125
  br label %127

127:                                              ; preds = %126
  br label %128

128:                                              ; preds = %127
  br label %130

129:                                              ; preds = %101
  store i8 1, ptr %12, align 1, !tbaa !7
  br label %130

130:                                              ; preds = %129, %128
  br label %131

131:                                              ; preds = %130
  br label %132

132:                                              ; preds = %131
  %133 = call i32 @H5E_clear_stack()
  %134 = load i64, ptr %6, align 8, !tbaa !3
  %135 = icmp ne i64 0, %134
  br i1 %135, label %136, label %233

136:                                              ; preds = %132
  call void @llvm.lifetime.start.p0(i64 8, ptr %14) #5
  %137 = load i64, ptr %6, align 8, !tbaa !3
  %138 = call ptr @H5I_object_verify(i64 noundef %137, i32 noundef 16)
  store ptr %138, ptr %14, align 8, !tbaa !11
  %139 = icmp eq ptr null, %138
  br i1 %139, label %140, label %159

140:                                              ; preds = %136
  br label %141

141:                                              ; preds = %140
  br label %142

142:                                              ; preds = %141
  br label %143

143:                                              ; preds = %142
  %144 = load i64, ptr @H5E_ARGS_g, align 8, !tbaa !3
  %145 = load i64, ptr @H5E_BADTYPE_g, align 8, !tbaa !3
  %146 = call i32 (ptr, ptr, i32, i64, i64, ptr, ...) @H5E_printf_stack(ptr noundef @.str, ptr noundef @__func__.H5ESwait, i32 noundef 300, i64 noundef %144, i64 noundef %145, ptr noundef @.str.6)
  br label %147

147:                                              ; preds = %143
  br label %148

148:                                              ; preds = %147
  store i8 1, ptr %13, align 1, !tbaa !7
  %149 = load i8, ptr %13, align 1, !tbaa !7, !range !9, !noundef !10
  %150 = trunc i8 %149 to i1
  %151 = zext i1 %150 to i8
  store i8 %151, ptr %13, align 1, !tbaa !7
  br label %152

152:                                              ; preds = %148
  br label %153

153:                                              ; preds = %152
  br label %154

154:                                              ; preds = %153
  store i32 -1, ptr %10, align 4, !tbaa !17
  store i32 12, ptr %15, align 4
  br label %230

155:                                              ; No predecessors!
  br label %156

156:                                              ; preds = %155
  br label %157

157:                                              ; preds = %156
  br label %158

158:                                              ; preds = %157
  br label %159

159:                                              ; preds = %158, %136
  %160 = load ptr, ptr %8, align 8, !tbaa !19
  %161 = icmp eq ptr null, %160
  br i1 %161, label %162, label %181

162:                                              ; preds = %159
  br label %163

163:                                              ; preds = %162
  br label %164

164:                                              ; preds = %163
  br label %165

165:                                              ; preds = %164
  %166 = load i64, ptr @H5E_ARGS_g, align 8, !tbaa !3
  %167 = load i64, ptr @H5E_BADVALUE_g, align 8, !tbaa !3
  %168 = call i32 (ptr, ptr, i32, i64, i64, ptr, ...) @H5E_printf_stack(ptr noundef @.str, ptr noundef @__func__.H5ESwait, i32 noundef 302, i64 noundef %166, i64 noundef %167, ptr noundef @.str.12)
  br label %169

169:                                              ; preds = %165
  br label %170

170:                                              ; preds = %169
  store i8 1, ptr %13, align 1, !tbaa !7
  %171 = load i8, ptr %13, align 1, !tbaa !7, !range !9, !noundef !10
  %172 = trunc i8 %171 to i1
  %173 = zext i1 %172 to i8
  store i8 %173, ptr %13, align 1, !tbaa !7
  br label %174

174:                                              ; preds = %170
  br label %175

175:                                              ; preds = %174
  br label %176

176:                                              ; preds = %175
  store i32 -1, ptr %10, align 4, !tbaa !17
  store i32 12, ptr %15, align 4
  br label %230

177:                                              ; No predecessors!
  br label %178

178:                                              ; preds = %177
  br label %179

179:                                              ; preds = %178
  br label %180

180:                                              ; preds = %179
  br label %181

181:                                              ; preds = %180, %159
  %182 = load ptr, ptr %9, align 8, !tbaa !25
  %183 = icmp eq ptr null, %182
  br i1 %183, label %184, label %203

184:                                              ; preds = %181
  br label %185

185:                                              ; preds = %184
  br label %186

186:                                              ; preds = %185
  br label %187

187:                                              ; preds = %186
  %188 = load i64, ptr @H5E_ARGS_g, align 8, !tbaa !3
  %189 = load i64, ptr @H5E_BADVALUE_g, align 8, !tbaa !3
  %190 = call i32 (ptr, ptr, i32, i64, i64, ptr, ...) @H5E_printf_stack(ptr noundef @.str, ptr noundef @__func__.H5ESwait, i32 noundef 304, i64 noundef %188, i64 noundef %189, ptr noundef @.str.13)
  br label %191

191:                                              ; preds = %187
  br label %192

192:                                              ; preds = %191
  store i8 1, ptr %13, align 1, !tbaa !7
  %193 = load i8, ptr %13, align 1, !tbaa !7, !range !9, !noundef !10
  %194 = trunc i8 %193 to i1
  %195 = zext i1 %194 to i8
  store i8 %195, ptr %13, align 1, !tbaa !7
  br label %196

196:                                              ; preds = %192
  br label %197

197:                                              ; preds = %196
  br label %198

198:                                              ; preds = %197
  store i32 -1, ptr %10, align 4, !tbaa !17
  store i32 12, ptr %15, align 4
  br label %230

199:                                              ; No predecessors!
  br label %200

200:                                              ; preds = %199
  br label %201

201:                                              ; preds = %200
  br label %202

202:                                              ; preds = %201
  br label %203

203:                                              ; preds = %202, %181
  %204 = load ptr, ptr %14, align 8, !tbaa !11
  %205 = load i64, ptr %7, align 8, !tbaa !3
  %206 = load ptr, ptr %8, align 8, !tbaa !19
  %207 = load ptr, ptr %9, align 8, !tbaa !25
  %208 = call i32 @H5ES__wait(ptr noundef %204, i64 noundef %205, ptr noundef %206, ptr noundef %207)
  %209 = icmp slt i32 %208, 0
  br i1 %209, label %210, label %229

210:                                              ; preds = %203
  br label %211

211:                                              ; preds = %210
  br label %212

212:                                              ; preds = %211
  br label %213

213:                                              ; preds = %212
  %214 = load i64, ptr @H5E_EVENTSET_g, align 8, !tbaa !3
  %215 = load i64, ptr @H5E_CANTWAIT_g, align 8, !tbaa !3
  %216 = call i32 (ptr, ptr, i32, i64, i64, ptr, ...) @H5E_printf_stack(ptr noundef @.str, ptr noundef @__func__.H5ESwait, i32 noundef 308, i64 noundef %214, i64 noundef %215, ptr noundef @.str.14)
  br label %217

217:                                              ; preds = %213
  br label %218

218:                                              ; preds = %217
  store i8 1, ptr %13, align 1, !tbaa !7
  %219 = load i8, ptr %13, align 1, !tbaa !7, !range !9, !noundef !10
  %220 = trunc i8 %219 to i1
  %221 = zext i1 %220 to i8
  store i8 %221, ptr %13, align 1, !tbaa !7
  br label %222

222:                                              ; preds = %218
  br label %223

223:                                              ; preds = %222
  br label %224

224:                                              ; preds = %223
  store i32 -1, ptr %10, align 4, !tbaa !17
  store i32 12, ptr %15, align 4
  br label %230

225:                                              ; No predecessors!
  br label %226

226:                                              ; preds = %225
  br label %227

227:                                              ; preds = %226
  br label %228

228:                                              ; preds = %227
  br label %229

229:                                              ; preds = %228, %203
  store i32 0, ptr %15, align 4
  br label %230

230:                                              ; preds = %224, %198, %176, %154, %229
  call void @llvm.lifetime.end.p0(i64 8, ptr %14) #5
  %231 = load i32, ptr %15, align 4
  switch i32 %231, label %258 [
    i32 0, label %232
    i32 12, label %234
  ]

232:                                              ; preds = %230
  br label %233

233:                                              ; preds = %232, %132
  br label %234

234:                                              ; preds = %233, %230, %124, %92, %54
  %235 = load i8, ptr %12, align 1, !tbaa !7, !range !9, !noundef !10
  %236 = trunc i8 %235 to i1
  %237 = xor i1 %236, true
  %238 = xor i1 %237, true
  %239 = zext i1 %238 to i32
  %240 = sext i32 %239 to i64
  %241 = call i64 @llvm.expect.i64(i64 %240, i64 1)
  %242 = icmp ne i64 %241, 0
  br i1 %242, label %243, label %245

243:                                              ; preds = %234
  %244 = call i32 @H5CX_pop(i1 noundef zeroext true)
  store i8 0, ptr %12, align 1, !tbaa !7
  br label %245

245:                                              ; preds = %243, %234
  %246 = load i8, ptr %13, align 1, !tbaa !7, !range !9, !noundef !10
  %247 = trunc i8 %246 to i1
  %248 = xor i1 %247, true
  %249 = xor i1 %248, true
  %250 = zext i1 %249 to i32
  %251 = sext i32 %250 to i64
  %252 = call i64 @llvm.expect.i64(i64 %251, i64 0)
  %253 = icmp ne i64 %252, 0
  br i1 %253, label %254, label %256

254:                                              ; preds = %245
  %255 = call i32 @H5E_dump_api_stack()
  br label %256

256:                                              ; preds = %254, %245
  %257 = load i32, ptr %10, align 4, !tbaa !17
  store i32 %257, ptr %5, align 4
  store i32 1, ptr %15, align 4
  br label %258

258:                                              ; preds = %256, %230
  call void @llvm.lifetime.end.p0(i64 1, ptr %13) #5
  call void @llvm.lifetime.end.p0(i64 1, ptr %12) #5
  call void @llvm.lifetime.end.p0(i64 480, ptr %11) #5
  call void @llvm.lifetime.end.p0(i64 4, ptr %10) #5
  %259 = load i32, ptr %5, align 4
  ret i32 %259
}