; Function Attrs: nounwind uwtable
define range(i32 -1, 1) i32 @H5ESwait(i64 noundef %0, i64 noundef %1, ptr noundef %2, ptr noundef %3) local_unnamed_addr #0 {
  %5 = alloca %struct.H5CX_node_t, align 8
  call void @llvm.lifetime.start.p0(i64 480, ptr nonnull %5) #4
  call void @llvm.memset.p0.i64(ptr noundef nonnull align 8 dereferenceable(480) %5, i8 0, i64 480, i1 false)
  %6 = load i8, ptr @H5_libinit_g, align 1, !tbaa !3, !range !7, !noundef !8
  %7 = trunc nuw i8 %6 to i1
  %8 = load i8, ptr @H5_libterm_g, align 1, !range !7
  %9 = trunc nuw i8 %8 to i1
  %10 = select i1 %7, i1 true, i1 %9
  br i1 %10, label %18, label %11, !prof !9

11:                                               ; preds = %4
  %12 = tail call i32 @H5_init_library() #4
  %13 = icmp slt i32 %12, 0
  br i1 %13, label %14, label %._crit_edge, !prof !10

._crit_edge:                                      ; preds = %11
  %.pre = load i8, ptr @H5_libterm_g, align 1, !range !7
  br label %18

14:                                               ; preds = %11
  %15 = load i64, ptr @H5E_FUNC_g, align 8, !tbaa !11
  %16 = load i64, ptr @H5E_CANTINIT_g, align 8, !tbaa !11
  %17 = tail call i32 (ptr, ptr, i32, i64, i64, ptr, ...) @H5E_printf_stack(ptr noundef nonnull @.str, ptr noundef nonnull @__func__.H5ESwait, i32 noundef 292, i64 noundef %15, i64 noundef %16, ptr noundef nonnull @.str.1) #4
  br label %.thread36

18:                                               ; preds = %._crit_edge, %4
  %19 = phi i8 [ %.pre, %._crit_edge ], [ %8, %4 ]
  %20 = load i8, ptr @H5ES_init_g, align 1, !tbaa !3, !range !7, !noundef !8
  %21 = trunc nuw i8 %20 to i1
  %22 = trunc nuw i8 %19 to i1
  %23 = select i1 %21, i1 true, i1 %22
  br i1 %23, label %31, label %24, !prof !9

24:                                               ; preds = %18
  store i8 1, ptr @H5ES_init_g, align 1, !tbaa !3
  %25 = tail call i32 @H5ES__init_package() #4
  %26 = icmp slt i32 %25, 0
  br i1 %26, label %27, label %31, !prof !13

27:                                               ; preds = %24
  store i8 0, ptr @H5ES_init_g, align 1, !tbaa !3
  %28 = load i64, ptr @H5E_FUNC_g, align 8, !tbaa !11
  %29 = load i64, ptr @H5E_CANTINIT_g, align 8, !tbaa !11
  %30 = tail call i32 (ptr, ptr, i32, i64, i64, ptr, ...) @H5E_printf_stack(ptr noundef nonnull @.str, ptr noundef nonnull @__func__.H5ESwait, i32 noundef 292, i64 noundef %28, i64 noundef %29, ptr noundef nonnull @.str.2) #4
  br label %.thread36

31:                                               ; preds = %18, %24
  %32 = call i32 @H5CX_push(ptr noundef nonnull %5) #4
  %33 = icmp slt i32 %32, 0
  br i1 %33, label %34, label %38, !prof !10

34:                                               ; preds = %31
  %35 = load i64, ptr @H5E_FUNC_g, align 8, !tbaa !11
  %36 = load i64, ptr @H5E_CANTSET_g, align 8, !tbaa !11
  %37 = call i32 (ptr, ptr, i32, i64, i64, ptr, ...) @H5E_printf_stack(ptr noundef nonnull @.str, ptr noundef nonnull @__func__.H5ESwait, i32 noundef 292, i64 noundef %35, i64 noundef %36, ptr noundef nonnull @.str.3) #4
  br label %.thread36

38:                                               ; preds = %31
  %39 = call i32 @H5E_clear_stack() #4
  %.not = icmp eq i64 %0, 0
  br i1 %.not, label %67, label %40

40:                                               ; preds = %38
  %41 = call ptr @H5I_object_verify(i64 noundef %0, i32 noundef 16) #4
  %42 = icmp eq ptr %41, null
  br i1 %42, label %43, label %47

43:                                               ; preds = %40
  %44 = load i64, ptr @H5E_ARGS_g, align 8, !tbaa !11
  %45 = load i64, ptr @H5E_BADTYPE_g, align 8, !tbaa !11
  %46 = call i32 (ptr, ptr, i32, i64, i64, ptr, ...) @H5E_printf_stack(ptr noundef nonnull @.str, ptr noundef nonnull @__func__.H5ESwait, i32 noundef 300, i64 noundef %44, i64 noundef %45, ptr noundef nonnull @.str.6) #4
  br label %.thread41

47:                                               ; preds = %40
  %48 = icmp eq ptr %2, null
  br i1 %48, label %49, label %53

49:                                               ; preds = %47
  %50 = load i64, ptr @H5E_ARGS_g, align 8, !tbaa !11
  %51 = load i64, ptr @H5E_BADVALUE_g, align 8, !tbaa !11
  %52 = call i32 (ptr, ptr, i32, i64, i64, ptr, ...) @H5E_printf_stack(ptr noundef nonnull @.str, ptr noundef nonnull @__func__.H5ESwait, i32 noundef 302, i64 noundef %50, i64 noundef %51, ptr noundef nonnull @.str.12) #4
  br label %.thread41

53:                                               ; preds = %47
  %54 = icmp eq ptr %3, null
  br i1 %54, label %55, label %59

55:                                               ; preds = %53
  %56 = load i64, ptr @H5E_ARGS_g, align 8, !tbaa !11
  %57 = load i64, ptr @H5E_BADVALUE_g, align 8, !tbaa !11
  %58 = call i32 (ptr, ptr, i32, i64, i64, ptr, ...) @H5E_printf_stack(ptr noundef nonnull @.str, ptr noundef nonnull @__func__.H5ESwait, i32 noundef 304, i64 noundef %56, i64 noundef %57, ptr noundef nonnull @.str.13) #4
  br label %.thread41

59:                                               ; preds = %53
  %60 = call i32 @H5ES__wait(ptr noundef nonnull %41, i64 noundef %1, ptr noundef nonnull %2, ptr noundef nonnull %3) #4
  %61 = icmp slt i32 %60, 0
  br i1 %61, label %62, label %67

62:                                               ; preds = %59
  %63 = load i64, ptr @H5E_EVENTSET_g, align 8, !tbaa !11
  %64 = load i64, ptr @H5E_CANTWAIT_g, align 8, !tbaa !11
  %65 = call i32 (ptr, ptr, i32, i64, i64, ptr, ...) @H5E_printf_stack(ptr noundef nonnull @.str, ptr noundef nonnull @__func__.H5ESwait, i32 noundef 308, i64 noundef %63, i64 noundef %64, ptr noundef nonnull @.str.14) #4
  br label %.thread41

.thread41:                                        ; preds = %62, %55, %49, %43
  %66 = call i32 @H5CX_pop(i1 noundef zeroext true) #4
  br label %.thread36

67:                                               ; preds = %59, %38
  %68 = call i32 @H5CX_pop(i1 noundef zeroext true) #4
  br label %70

.thread36:                                        ; preds = %34, %27, %14, %.thread41
  %69 = call i32 @H5E_dump_api_stack() #4
  br label %70

70:                                               ; preds = %67, %.thread36
  %.019 = phi i32 [ -1, %.thread36 ], [ 0, %67 ]
  call void @llvm.lifetime.end.p0(i64 480, ptr nonnull %5) #4
  ret i32 %.019
}